; Function Attrs: nofree norecurse nosync nounwind memory(argmem: readwrite) uwtable
define internal void @blend_overlay_32bit(ptr noundef readonly captures(none) %0, i64 noundef %1, ptr noundef readonly captures(none) %2, i64 noundef %3, ptr noundef writeonly captures(none) %4, i64 noundef %5, i64 noundef %6, i64 noundef %7, ptr noundef readonly captures(none) %8, ptr readnone captures(none) %9) #6 {
  %11 = lshr i64 %5, 2
  %12 = lshr i64 %1, 2
  %13 = lshr i64 %3, 2
  %14 = icmp sgt i64 %7, 0
  br i1 %14, label %.preheader.lr.ph, label %._crit_edge46

.preheader.lr.ph:                                 ; preds = %10
  %15 = getelementptr inbounds nuw i8, ptr %8, i64 8
  %16 = load double, ptr %15, align 8, !tbaa !70
  %17 = fptrunc nsz double %16 to float
  %18 = icmp sgt i64 %6, 0
  %19 = fpext nsz float %17 to double
  br i1 %18, label %.preheader.us, label %._crit_edge46

.preheader.us:                                    ; preds = %.preheader.lr.ph, %._crit_edge.us
  %indvars.iv50 = phi i64 [ %indvars.iv.next51, %._crit_edge.us ], [ 0, %.preheader.lr.ph ]
  %.03644.us = phi ptr [ %45, %._crit_edge.us ], [ %4, %.preheader.lr.ph ]
  %.03743.us = phi ptr [ %47, %._crit_edge.us ], [ %2, %.preheader.lr.ph ]
  %.03842.us = phi ptr [ %46, %._crit_edge.us ], [ %0, %.preheader.lr.ph ]
  br label %20

20:                                               ; preds = %.preheader.us, %39
  %indvars.iv = phi i64 [ 0, %.preheader.us ], [ %indvars.iv.next, %39 ]
  %21 = getelementptr inbounds nuw float, ptr %.03842.us, i64 %indvars.iv
  %22 = load float, ptr %21, align 4, !tbaa !81
  %23 = fpext nsz float %22 to double
  %24 = fcmp nsz olt float %22, 5.000000e-01
  br i1 %24, label %33, label %25

25:                                               ; preds = %20
  %26 = fsub nsz double 1.000000e+00, %23
  %27 = getelementptr inbounds nuw float, ptr %.03743.us, i64 %indvars.iv
  %28 = load float, ptr %27, align 4, !tbaa !81
  %29 = fpext nsz float %28 to double
  %30 = fsub nsz double 1.000000e+00, %29
  %31 = fmul nsz double %26, %30
  %32 = tail call nsz double @llvm.fmuladd.f64(double %31, double -2.000000e+00, double 1.000000e+00)
  br label %39

33:                                               ; preds = %20
  %34 = getelementptr inbounds nuw float, ptr %.03743.us, i64 %indvars.iv
  %35 = load float, ptr %34, align 4, !tbaa !81
  %36 = fmul nsz float %22, %35
  %37 = fpext nsz float %36 to double
  %38 = fmul nsz double %37, 2.000000e+00
  br label %39

39:                                               ; preds = %33, %25
  %40 = phi nsz double [ %38, %33 ], [ %32, %25 ]
  %41 = fsub nsz double %40, %23
  %42 = tail call nsz double @llvm.fmuladd.f64(double %41, double %19, double %23)
  %43 = fptrunc nsz double %42 to float
  %44 = getelementptr inbounds nuw float, ptr %.03644.us, i64 %indvars.iv
  store float %43, ptr %44, align 4, !tbaa !81
  %indvars.iv.next = add nuw nsw i64 %indvars.iv, 1
  %exitcond.not = icmp eq i64 %indvars.iv.next, %6
  br i1 %exitcond.not, label %._crit_edge.us, label %20, !llvm.loop !612

._crit_edge.us:                                   ; preds = %39
  %45 = getelementptr inbounds nuw float, ptr %.03644.us, i64 %11
  %46 = getelementptr inbounds nuw float, ptr %.03842.us, i64 %12
  %47 = getelementptr inbounds nuw float, ptr %.03743.us, i64 %13
  %indvars.iv.next51 = add nuw nsw i64 %indvars.iv50, 1
  %exitcond53.not = icmp eq i64 %indvars.iv.next51, %7
  br i1 %exitcond53.not, label %._crit_edge46, label %.preheader.us, !llvm.loop !613

._crit_edge46:                                    ; preds = %._crit_edge.us, %.preheader.lr.ph, %10
  ret void
}